c__builtin__
set
p1
((lp2
Vhttps://baike.baidu.com/item/%E6%B5%AA%E6%BC%AB%E8%A1%97%E5%A4%B4/6355632
p3
aVhttps://baike.baidu.com/item/%E5%86%B3%E6%88%98%E7%B4%AB%E7%A6%81%E4%B9%8B%E5%B7%85/2894185
p4
aVhttps://baike.baidu.com/item/%E5%8F%8C%E4%BA%BA%E5%BA%8A%E6%9D%A1%E7%BA%A6/2307833
p5
atRp6
.